target datalayout = "e-m:e-p270:32:32-p271:32:32-p272:64:64-i64:64-i128:128-f80:128-n8:16:32:64-S128"
target triple = "x86_64-pc-linux-gnu"

@.str.7 = private unnamed_addr constant [8 x i8] c"mac_key\00", align 1
@__const.do_evp_mac.text = private unnamed_addr constant [17 x i8] c"Some Crypto Text\00", align 16

; Function Attrs: nounwind uwtable
define internal i32 @do_evp_mac(ptr noundef %0, ptr noundef %1) #0 {
  %3 = alloca ptr, align 8
  %4 = alloca ptr, align 8
  %5 = alloca i32, align 4
  %6 = alloca ptr, align 8
  %7 = alloca [17 x i8], align 16
  %8 = alloca ptr, align 8
  %9 = alloca [4096 x i8], align 16
  %10 = alloca i64, align 8
  store ptr %0, ptr %3, align 8, !tbaa !49
  store ptr %1, ptr %4, align 8, !tbaa !43
  call void @llvm.lifetime.start.p0(i64 4, ptr %5) #6
  store i32 1, ptr %5, align 4, !tbaa !37
  call void @llvm.lifetime.start.p0(i64 8, ptr %6) #6
  store ptr @.str.7, ptr %6, align 8, !tbaa !33
  call void @llvm.lifetime.start.p0(i64 17, ptr %7) #6
  call void @llvm.memcpy.p0.p0.i64(ptr align 16 %7, ptr align 16 @__const.do_evp_mac.text, i64 17, i1 false)
  call void @llvm.lifetime.start.p0(i64 8, ptr %8) #6
  store ptr null, ptr %8, align 8, !tbaa !87
  call void @llvm.lifetime.start.p0(i64 4096, ptr %9) #6
  call void @llvm.lifetime.start.p0(i64 8, ptr %10) #6
  %11 = load ptr, ptr %3, align 8, !tbaa !49
  %12 = call ptr @EVP_MAC_CTX_new(ptr noundef %11)
  store ptr %12, ptr %8, align 8, !tbaa !87
  %13 = icmp eq ptr %12, null
  br i1 %13, label %22, label %14

14:                                               ; preds = %2
  %15 = load ptr, ptr %8, align 8, !tbaa !87
  %16 = load ptr, ptr %6, align 8, !tbaa !33
  %17 = load ptr, ptr %6, align 8, !tbaa !33
  %18 = call i64 @strlen(ptr noundef %17) #7
  %19 = load ptr, ptr %4, align 8, !tbaa !43
  %20 = call i32 @EVP_MAC_init(ptr noundef %15, ptr noundef %16, i64 noundef %18, ptr noundef %19)
  %21 = icmp ne i32 %20, 0
  br i1 %21, label %23, label %22

22:                                               ; preds = %14, %2
  store i32 0, ptr %5, align 4, !tbaa !37
  br label %42

23:                                               ; preds = %14
  %24 = load ptr, ptr %8, align 8, !tbaa !87
  %25 = load ptr, ptr %4, align 8, !tbaa !43
  %26 = call i32 @EVP_MAC_CTX_set_params(ptr noundef %24, ptr noundef %25)
  %27 = icmp sle i32 %26, 0
  br i1 %27, label %28, label %29

28:                                               ; preds = %23
  store i32 0, ptr %5, align 4, !tbaa !37
  br label %42

29:                                               ; preds = %23
  %30 = load ptr, ptr %8, align 8, !tbaa !87
  %31 = getelementptr inbounds [17 x i8], ptr %7, i64 0, i64 0
  %32 = call i32 @EVP_MAC_update(ptr noundef %30, ptr noundef %31, i64 noundef 17)
  %33 = icmp ne i32 %32, 0
  br i1 %33, label %35, label %34

34:                                               ; preds = %29
  store i32 0, ptr %5, align 4, !tbaa !37
  br label %42

35:                                               ; preds = %29
  %36 = load ptr, ptr %8, align 8, !tbaa !87
  %37 = getelementptr inbounds [4096 x i8], ptr %9, i64 0, i64 0
  %38 = call i32 @EVP_MAC_final(ptr noundef %36, ptr noundef %37, ptr noundef %10, i64 noundef 4096)
  %39 = icmp ne i32 %38, 0
  br i1 %39, label %41, label %40

40:                                               ; preds = %35
  store i32 0, ptr %5, align 4, !tbaa !37
  br label %42

41:                                               ; preds = %35
  br label %42

42:                                               ; preds = %41, %40, %34, %28, %22
  %43 = load ptr, ptr %8, align 8, !tbaa !87
  call void @EVP_MAC_CTX_free(ptr noundef %43)
  %44 = load i32, ptr %5, align 4, !tbaa !37
  call void @llvm.lifetime.end.p0(i64 8, ptr %10) #6
  call void @llvm.lifetime.end.p0(i64 4096, ptr %9) #6
  call void @llvm.lifetime.end.p0(i64 8, ptr %8) #6
  call void @llvm.lifetime.end.p0(i64 17, ptr %7) #6
  call void @llvm.lifetime.end.p0(i64 8, ptr %6) #6
  call void @llvm.lifetime.end.p0(i64 4, ptr %5) #6
  ret i32 %44
}