; Function Attrs: nounwind uwtable
define internal fastcc void @do_evp_mac(ptr noundef nonnull %0, ptr noundef nonnull %1) unnamed_addr #0 {
  %3 = alloca [17 x i8], align 16
  %4 = alloca [4096 x i8], align 16
  %5 = alloca i64, align 8
  call void @llvm.lifetime.start.p0(i64 17, ptr nonnull %3) #6
  call void @llvm.memcpy.p0.p0.i64(ptr noundef nonnull align 16 dereferenceable(17) %3, ptr noundef nonnull align 16 dereferenceable(17) @__const.do_evp_mac.text, i64 17, i1 false)
  call void @llvm.lifetime.start.p0(i64 4096, ptr nonnull %4) #6
  call void @llvm.lifetime.start.p0(i64 8, ptr nonnull %5) #6
  %6 = tail call ptr @EVP_MAC_CTX_new(ptr noundef nonnull %0) #6
  %7 = icmp eq ptr %6, null
  br i1 %7, label %17, label %8

8:                                                ; preds = %2
  %9 = tail call i32 @EVP_MAC_init(ptr noundef nonnull %6, ptr noundef nonnull @.str.7, i64 noundef 7, ptr noundef nonnull %1) #6
  %.not = icmp eq i32 %9, 0
  br i1 %.not, label %17, label %10

10:                                               ; preds = %8
  %11 = tail call i32 @EVP_MAC_CTX_set_params(ptr noundef nonnull %6, ptr noundef nonnull %1) #6
  %12 = icmp slt i32 %11, 1
  br i1 %12, label %17, label %13

13:                                               ; preds = %10
  %14 = call i32 @EVP_MAC_update(ptr noundef nonnull %6, ptr noundef nonnull %3, i64 noundef 17) #6
  %.not11 = icmp eq i32 %14, 0
  br i1 %.not11, label %17, label %15

15:                                               ; preds = %13
  %16 = call i32 @EVP_MAC_final(ptr noundef nonnull %6, ptr noundef nonnull %4, ptr noundef nonnull %5, i64 noundef 4096) #6
  br label %17

17:                                               ; preds = %15, %13, %10, %2, %8
  call void @EVP_MAC_CTX_free(ptr noundef %6) #6
  call void @llvm.lifetime.end.p0(i64 8, ptr nonnull %5) #6
  call void @llvm.lifetime.end.p0(i64 4096, ptr nonnull %4) #6
  call void @llvm.lifetime.end.p0(i64 17, ptr nonnull %3) #6
  ret void
}